target datalayout = "e-m:e-p270:32:32-p271:32:32-p272:64:64-i64:64-i128:128-f80:128-n8:16:32:64-S128"
target triple = "x86_64-pc-linux-gnu"

%struct.X509_name_st = type { ptr, i32, ptr, ptr, i32 }
%struct.buf_mem_st = type { i64, ptr, i64, i64 }
%struct.X509_name_entry_st = type { ptr, ptr, i32, i32 }
%union.anon.1 = type { ptr }

@.str.2 = private unnamed_addr constant [32 x i8] c"../openssl/crypto/x509/x_name.c\00", align 1
@X509_NAME_INTERNAL_it.local_it = internal constant { i8, [7 x i8], i64, ptr, i64, ptr, i64, ptr } { i8 0, [7 x i8] zeroinitializer, i64 -1, ptr @X509_NAME_INTERNAL_item_tt, i64 0, ptr null, i64 0, ptr @.str.6 }, align 8
@__func__.x509_name_encode = private unnamed_addr constant [17 x i8] c"x509_name_encode\00", align 1

; Function Attrs: inlinehint nounwind uwtable
define internal void @sk_STACK_OF_X509_NAME_ENTRY_pop_free(ptr noundef %0, ptr noundef %1) #3 {
  %3 = alloca ptr, align 8
  %4 = alloca ptr, align 8
  store ptr %0, ptr %3, align 8, !tbaa !58
  store ptr %1, ptr %4, align 8, !tbaa !57
  %5 = load ptr, ptr %3, align 8, !tbaa !58
  %6 = load ptr, ptr %4, align 8, !tbaa !57
  call void @OPENSSL_sk_pop_free(ptr noundef %5, ptr noundef %6)
  ret void
}

; Function Attrs: nounwind uwtable
define internal ptr @X509_NAME_INTERNAL_it() #0 {
  ret ptr @X509_NAME_INTERNAL_it.local_it
}

; Function Attrs: inlinehint nounwind uwtable
define internal ptr @ossl_check_X509_NAME_ENTRY_type(ptr noundef %0) #3 {
  %2 = alloca ptr, align 8
  store ptr %0, ptr %2, align 8, !tbaa !12
  %3 = load ptr, ptr %2, align 8, !tbaa !12
  ret ptr %3
}

; Function Attrs: inlinehint nounwind uwtable
define internal ptr @ossl_check_X509_NAME_ENTRY_sk_type(ptr noundef %0) #3 {
  %2 = alloca ptr, align 8
  store ptr %0, ptr %2, align 8, !tbaa !45
  %3 = load ptr, ptr %2, align 8, !tbaa !45
  ret ptr %3
}

; Function Attrs: inlinehint nounwind uwtable
define internal i32 @sk_STACK_OF_X509_NAME_ENTRY_push(ptr noundef %0, ptr noundef %1) #3 {
  %3 = alloca ptr, align 8
  %4 = alloca ptr, align 8
  store ptr %0, ptr %3, align 8, !tbaa !58
  store ptr %1, ptr %4, align 8, !tbaa !45
  %5 = load ptr, ptr %3, align 8, !tbaa !58
  %6 = load ptr, ptr %4, align 8, !tbaa !45
  %7 = call i32 @OPENSSL_sk_push(ptr noundef %5, ptr noundef %6)
  ret i32 %7
}

; Function Attrs: inlinehint nounwind uwtable
define internal ptr @ossl_check_const_X509_NAME_ENTRY_sk_type(ptr noundef %0) #3 {
  %2 = alloca ptr, align 8
  store ptr %0, ptr %2, align 8, !tbaa !45
  %3 = load ptr, ptr %2, align 8, !tbaa !45
  ret ptr %3
}

; Function Attrs: inlinehint nounwind uwtable
define internal ptr @sk_STACK_OF_X509_NAME_ENTRY_new_null() #3 {
  %1 = call ptr @OPENSSL_sk_new_null()
  ret ptr %1
}

; Function Attrs: nounwind uwtable
define internal i32 @x509_name_encode(ptr noundef %0) #0 {
  %2 = alloca i32, align 4
  %3 = alloca ptr, align 8
  %4 = alloca %union.anon.1, align 8
  %5 = alloca i32, align 4
  %6 = alloca ptr, align 8
  %7 = alloca ptr, align 8
  %8 = alloca ptr, align 8
  %9 = alloca i32, align 4
  %10 = alloca i32, align 4
  %11 = alloca i32, align 4
  store ptr %0, ptr %3, align 8, !tbaa !16
  call void @llvm.lifetime.start.p0(i64 8, ptr %4) #6
  call void @llvm.memset.p0.i64(ptr align 8 %4, i8 0, i64 8, i1 false)
  call void @llvm.lifetime.start.p0(i64 4, ptr %5) #6
  call void @llvm.lifetime.start.p0(i64 8, ptr %6) #6
  call void @llvm.lifetime.start.p0(i64 8, ptr %7) #6
  store ptr null, ptr %7, align 8, !tbaa !45
  call void @llvm.lifetime.start.p0(i64 8, ptr %8) #6
  call void @llvm.lifetime.start.p0(i64 4, ptr %9) #6
  call void @llvm.lifetime.start.p0(i64 4, ptr %10) #6
  store i32 -1, ptr %10, align 4, !tbaa !20
  %12 = call ptr @sk_STACK_OF_X509_NAME_ENTRY_new_null()
  store ptr %12, ptr %4, align 8, !tbaa !24
  %13 = load ptr, ptr %4, align 8, !tbaa !24
  %14 = icmp ne ptr %13, null
  br i1 %14, label %16, label %15

15:                                               ; preds = %1
  br label %89

16:                                               ; preds = %1
  store i32 0, ptr %9, align 4, !tbaa !20
  br label %17

17:                                               ; preds = %63, %16
  %18 = load i32, ptr %9, align 4, !tbaa !20
  %19 = load ptr, ptr %3, align 8, !tbaa !16
  %20 = getelementptr inbounds nuw %struct.X509_name_st, ptr %19, i32 0, i32 0
  %21 = load ptr, ptr %20, align 8, !tbaa !38
  %22 = call ptr @ossl_check_const_X509_NAME_ENTRY_sk_type(ptr noundef %21)
  %23 = call i32 @OPENSSL_sk_num(ptr noundef %22)
  %24 = icmp slt i32 %18, %23
  br i1 %24, label %25, label %66

25:                                               ; preds = %17
  %26 = load ptr, ptr %3, align 8, !tbaa !16
  %27 = getelementptr inbounds nuw %struct.X509_name_st, ptr %26, i32 0, i32 0
  %28 = load ptr, ptr %27, align 8, !tbaa !38
  %29 = call ptr @ossl_check_const_X509_NAME_ENTRY_sk_type(ptr noundef %28)
  %30 = load i32, ptr %9, align 4, !tbaa !20
  %31 = call ptr @OPENSSL_sk_value(ptr noundef %29, i32 noundef %30)
  store ptr %31, ptr %8, align 8, !tbaa !12
  %32 = load ptr, ptr %8, align 8, !tbaa !12
  %33 = getelementptr inbounds nuw %struct.X509_name_entry_st, ptr %32, i32 0, i32 2
  %34 = load i32, ptr %33, align 8, !tbaa !46
  %35 = load i32, ptr %10, align 4, !tbaa !20
  %36 = icmp ne i32 %34, %35
  br i1 %36, label %37, label %54

37:                                               ; preds = %25
  %38 = call ptr @OPENSSL_sk_new_null()
  store ptr %38, ptr %7, align 8, !tbaa !45
  %39 = load ptr, ptr %7, align 8, !tbaa !45
  %40 = icmp ne ptr %39, null
  br i1 %40, label %42, label %41

41:                                               ; preds = %37
  br label %89

42:                                               ; preds = %37
  %43 = load ptr, ptr %4, align 8, !tbaa !24
  %44 = load ptr, ptr %7, align 8, !tbaa !45
  %45 = call i32 @sk_STACK_OF_X509_NAME_ENTRY_push(ptr noundef %43, ptr noundef %44)
  %46 = icmp ne i32 %45, 0
  br i1 %46, label %50, label %47

47:                                               ; preds = %42
  %48 = load ptr, ptr %7, align 8, !tbaa !45
  %49 = call ptr @ossl_check_X509_NAME_ENTRY_sk_type(ptr noundef %48)
  call void @OPENSSL_sk_free(ptr noundef %49)
  br label %89

50:                                               ; preds = %42
  %51 = load ptr, ptr %8, align 8, !tbaa !12
  %52 = getelementptr inbounds nuw %struct.X509_name_entry_st, ptr %51, i32 0, i32 2
  %53 = load i32, ptr %52, align 8, !tbaa !46
  store i32 %53, ptr %10, align 4, !tbaa !20
  br label %54

54:                                               ; preds = %50, %25
  %55 = load ptr, ptr %7, align 8, !tbaa !45
  %56 = call ptr @ossl_check_X509_NAME_ENTRY_sk_type(ptr noundef %55)
  %57 = load ptr, ptr %8, align 8, !tbaa !12
  %58 = call ptr @ossl_check_X509_NAME_ENTRY_type(ptr noundef %57)
  %59 = call i32 @OPENSSL_sk_push(ptr noundef %56, ptr noundef %58)
  %60 = icmp ne i32 %59, 0
  br i1 %60, label %62, label %61

61:                                               ; preds = %54
  br label %89

62:                                               ; preds = %54
  br label %63

63:                                               ; preds = %62
  %64 = load i32, ptr %9, align 4, !tbaa !20
  %65 = add nsw i32 %64, 1
  store i32 %65, ptr %9, align 4, !tbaa !20
  br label %17, !llvm.loop !76

66:                                               ; preds = %17
  %67 = call ptr @X509_NAME_INTERNAL_it()
  %68 = call i32 @ASN1_item_ex_i2d(ptr noundef %4, ptr noundef null, ptr noundef %67, i32 noundef -1, i32 noundef -1)
  store i32 %68, ptr %5, align 4, !tbaa !20
  %69 = load ptr, ptr %3, align 8, !tbaa !16
  %70 = getelementptr inbounds nuw %struct.X509_name_st, ptr %69, i32 0, i32 2
  %71 = load ptr, ptr %70, align 8, !tbaa !27
  %72 = load i32, ptr %5, align 4, !tbaa !20
  %73 = sext i32 %72 to i64
  %74 = call i64 @BUF_MEM_grow(ptr noundef %71, i64 noundef %73)
  %75 = icmp ne i64 %74, 0
  br i1 %75, label %77, label %76

76:                                               ; preds = %66
  call void @ERR_new()
  call void @ERR_set_debug(ptr noundef @.str.2, i32 noundef 271, ptr noundef @__func__.x509_name_encode)
  call void (i32, i32, ptr, ...) @ERR_set_error(i32 noundef 13, i32 noundef 524295, ptr noundef null)
  br label %90

77:                                               ; preds = %66
  %78 = load ptr, ptr %3, align 8, !tbaa !16
  %79 = getelementptr inbounds nuw %struct.X509_name_st, ptr %78, i32 0, i32 2
  %80 = load ptr, ptr %79, align 8, !tbaa !27
  %81 = getelementptr inbounds nuw %struct.buf_mem_st, ptr %80, i32 0, i32 1
  %82 = load ptr, ptr %81, align 8, !tbaa !31
  store ptr %82, ptr %6, align 8, !tbaa !22
  %83 = call ptr @X509_NAME_INTERNAL_it()
  %84 = call i32 @ASN1_item_ex_i2d(ptr noundef %4, ptr noundef %6, ptr noundef %83, i32 noundef -1, i32 noundef -1)
  %85 = load ptr, ptr %4, align 8, !tbaa !24
  call void @sk_STACK_OF_X509_NAME_ENTRY_pop_free(ptr noundef %85, ptr noundef @local_sk_X509_NAME_ENTRY_free)
  %86 = load ptr, ptr %3, align 8, !tbaa !16
  %87 = getelementptr inbounds nuw %struct.X509_name_st, ptr %86, i32 0, i32 1
  store i32 0, ptr %87, align 8, !tbaa !39
  %88 = load i32, ptr %5, align 4, !tbaa !20
  store i32 %88, ptr %2, align 4
  store i32 1, ptr %11, align 4
  br label %92

89:                                               ; preds = %61, %47, %41, %15
  call void @ERR_new()
  call void @ERR_set_debug(ptr noundef @.str.2, i32 noundef 282, ptr noundef @__func__.x509_name_encode)
  call void (i32, i32, ptr, ...) @ERR_set_error(i32 noundef 13, i32 noundef 524303, ptr noundef null)
  br label %90

90:                                               ; preds = %89, %76
  %91 = load ptr, ptr %4, align 8, !tbaa !24
  call void @sk_STACK_OF_X509_NAME_ENTRY_pop_free(ptr noundef %91, ptr noundef @local_sk_X509_NAME_ENTRY_free)
  store i32 -1, ptr %2, align 4
  store i32 1, ptr %11, align 4
  br label %92

92:                                               ; preds = %90, %77
  call void @llvm.lifetime.end.p0(i64 4, ptr %10) #6
  call void @llvm.lifetime.end.p0(i64 4, ptr %9) #6
  call void @llvm.lifetime.end.p0(i64 8, ptr %8) #6
  call void @llvm.lifetime.end.p0(i64 8, ptr %7) #6
  call void @llvm.lifetime.end.p0(i64 8, ptr %6) #6
  call void @llvm.lifetime.end.p0(i64 4, ptr %5) #6
  call void @llvm.lifetime.end.p0(i64 8, ptr %4) #6
  %93 = load i32, ptr %2, align 4
  ret i32 %93
}

; Function Attrs: nounwind uwtable
define internal i32 @x509_name_ex_i2d(ptr noundef %0, ptr noundef %1, ptr noundef %2, i32 noundef %3, i32 noundef %4) #0 {
  %6 = alloca i32, align 4
  %7 = alloca ptr, align 8
  %8 = alloca ptr, align 8
  %9 = alloca ptr, align 8
  %10 = alloca i32, align 4
  %11 = alloca i32, align 4
  %12 = alloca i32, align 4
  %13 = alloca ptr, align 8
  %14 = alloca i32, align 4
  store ptr %0, ptr %7, align 8, !tbaa !34
  store ptr %1, ptr %8, align 8, !tbaa !8
  store ptr %2, ptr %9, align 8, !tbaa !36
  store i32 %3, ptr %10, align 4, !tbaa !20
  store i32 %4, ptr %11, align 4, !tbaa !20
  call void @llvm.lifetime.start.p0(i64 4, ptr %12) #6
  call void @llvm.lifetime.start.p0(i64 8, ptr %13) #6
  %15 = load ptr, ptr %7, align 8, !tbaa !34
  %16 = load ptr, ptr %15, align 8, !tbaa !40
  store ptr %16, ptr %13, align 8, !tbaa !16
  %17 = load ptr, ptr %13, align 8, !tbaa !16
  %18 = getelementptr inbounds nuw %struct.X509_name_st, ptr %17, i32 0, i32 1
  %19 = load i32, ptr %18, align 8, !tbaa !39
  %20 = icmp ne i32 %19, 0
  br i1 %20, label %21, label %35

21:                                               ; preds = %5
  %22 = load ptr, ptr %13, align 8, !tbaa !16
  %23 = call i32 @x509_name_encode(ptr noundef %22)
  store i32 %23, ptr %12, align 4, !tbaa !20
  %24 = load i32, ptr %12, align 4, !tbaa !20
  %25 = icmp slt i32 %24, 0
  br i1 %25, label %26, label %28

26:                                               ; preds = %21
  %27 = load i32, ptr %12, align 4, !tbaa !20
  store i32 %27, ptr %6, align 4
  store i32 1, ptr %14, align 4
  br label %61

28:                                               ; preds = %21
  %29 = load ptr, ptr %13, align 8, !tbaa !16
  %30 = call i32 @x509_name_canon(ptr noundef %29)
  store i32 %30, ptr %12, align 4, !tbaa !20
  %31 = load i32, ptr %12, align 4, !tbaa !20
  %32 = icmp ne i32 %31, 0
  br i1 %32, label %34, label %33

33:                                               ; preds = %28
  store i32 -1, ptr %6, align 4
  store i32 1, ptr %14, align 4
  br label %61

34:                                               ; preds = %28
  br label %35

35:                                               ; preds = %34, %5
  %36 = load ptr, ptr %13, align 8, !tbaa !16
  %37 = getelementptr inbounds nuw %struct.X509_name_st, ptr %36, i32 0, i32 2
  %38 = load ptr, ptr %37, align 8, !tbaa !27
  %39 = getelementptr inbounds nuw %struct.buf_mem_st, ptr %38, i32 0, i32 0
  %40 = load i64, ptr %39, align 8, !tbaa !33
  %41 = trunc i64 %40 to i32
  store i32 %41, ptr %12, align 4, !tbaa !20
  %42 = load ptr, ptr %8, align 8, !tbaa !8
  %43 = icmp ne ptr %42, null
  br i1 %43, label %44, label %59

44:                                               ; preds = %35
  %45 = load ptr, ptr %8, align 8, !tbaa !8
  %46 = load ptr, ptr %45, align 8, !tbaa !22
  %47 = load ptr, ptr %13, align 8, !tbaa !16
  %48 = getelementptr inbounds nuw %struct.X509_name_st, ptr %47, i32 0, i32 2
  %49 = load ptr, ptr %48, align 8, !tbaa !27
  %50 = getelementptr inbounds nuw %struct.buf_mem_st, ptr %49, i32 0, i32 1
  %51 = load ptr, ptr %50, align 8, !tbaa !31
  %52 = load i32, ptr %12, align 4, !tbaa !20
  %53 = sext i32 %52 to i64
  call void @llvm.memcpy.p0.p0.i64(ptr align 1 %46, ptr align 1 %51, i64 %53, i1 false)
  %54 = load i32, ptr %12, align 4, !tbaa !20
  %55 = load ptr, ptr %8, align 8, !tbaa !8
  %56 = load ptr, ptr %55, align 8, !tbaa !22
  %57 = sext i32 %54 to i64
  %58 = getelementptr inbounds i8, ptr %56, i64 %57
  store ptr %58, ptr %55, align 8, !tbaa !22
  br label %59

59:                                               ; preds = %44, %35
  %60 = load i32, ptr %12, align 4, !tbaa !20
  store i32 %60, ptr %6, align 4
  store i32 1, ptr %14, align 4
  br label %61

61:                                               ; preds = %59, %33, %26
  call void @llvm.lifetime.end.p0(i64 8, ptr %13) #6
  call void @llvm.lifetime.end.p0(i64 4, ptr %12) #6
  %62 = load i32, ptr %6, align 4
  ret i32 %62
}