; Function Attrs: nounwind uwtable
define internal i32 @x509_name_ex_i2d(ptr noundef readonly captures(none) %0, ptr noundef captures(address_is_null) %1, ptr readnone captures(none) %2, i32 %3, i32 %4) #1 {
  %6 = alloca %union.anon.1, align 8
  %7 = alloca ptr, align 8
  %8 = load ptr, ptr %0, align 8, !tbaa !23
  %9 = getelementptr inbounds nuw i8, ptr %8, i64 8
  %10 = load i32, ptr %9, align 8, !tbaa !22
  %.not = icmp eq i32 %10, 0
  br i1 %.not, label %49, label %11

11:                                               ; preds = %5
  call void @llvm.lifetime.start.p0(i64 8, ptr nonnull %6) #6
  call void @llvm.lifetime.start.p0(i64 8, ptr nonnull %7) #6
  %12 = tail call ptr @OPENSSL_sk_new_null() #6
  store ptr %12, ptr %6, align 8, !tbaa !8
  %.not.i = icmp eq ptr %12, null
  br i1 %.not.i, label %.loopexit.i, label %.preheader.i

.preheader.i:                                     ; preds = %11
  %13 = load ptr, ptr %8, align 8, !tbaa !21
  %14 = tail call i32 @OPENSSL_sk_num(ptr noundef %13) #6
  %15 = icmp sgt i32 %14, 0
  br i1 %15, label %.lr.ph.i, label %._crit_edge.i

16:                                               ; preds = %32
  %17 = add nuw nsw i32 %.01829.i, 1
  %18 = load ptr, ptr %8, align 8, !tbaa !21
  %19 = tail call i32 @OPENSSL_sk_num(ptr noundef %18) #6
  %20 = icmp slt i32 %17, %19
  br i1 %20, label %.lr.ph.i, label %._crit_edge.i, !llvm.loop !33

.lr.ph.i:                                         ; preds = %.preheader.i, %16
  %.030.i = phi i32 [ %.1.i, %16 ], [ -1, %.preheader.i ]
  %.01829.i = phi i32 [ %17, %16 ], [ 0, %.preheader.i ]
  %.02028.i = phi ptr [ %.121.i, %16 ], [ null, %.preheader.i ]
  %21 = load ptr, ptr %8, align 8, !tbaa !21
  %22 = tail call ptr @OPENSSL_sk_value(ptr noundef %21, i32 noundef %.01829.i) #6
  %23 = getelementptr inbounds nuw i8, ptr %22, i64 16
  %24 = load i32, ptr %23, align 8, !tbaa !26
  %.not24.i = icmp eq i32 %24, %.030.i
  br i1 %.not24.i, label %32, label %25

25:                                               ; preds = %.lr.ph.i
  %26 = tail call ptr @OPENSSL_sk_new_null() #6
  %.not25.i = icmp eq ptr %26, null
  br i1 %.not25.i, label %.loopexit.i, label %27

27:                                               ; preds = %25
  %28 = tail call i32 @OPENSSL_sk_push(ptr noundef nonnull %12, ptr noundef nonnull %26) #6
  %.not26.i = icmp eq i32 %28, 0
  br i1 %.not26.i, label %29, label %30

29:                                               ; preds = %27
  tail call void @OPENSSL_sk_free(ptr noundef nonnull %26) #6
  br label %.loopexit.i

30:                                               ; preds = %27
  %31 = load i32, ptr %23, align 8, !tbaa !26
  br label %32

32:                                               ; preds = %30, %.lr.ph.i
  %.121.i = phi ptr [ %26, %30 ], [ %.02028.i, %.lr.ph.i ]
  %.1.i = phi i32 [ %31, %30 ], [ %.030.i, %.lr.ph.i ]
  %33 = tail call i32 @OPENSSL_sk_push(ptr noundef %.121.i, ptr noundef nonnull %22) #6
  %.not27.i = icmp eq i32 %33, 0
  br i1 %.not27.i, label %.loopexit.i, label %16

._crit_edge.i:                                    ; preds = %16, %.preheader.i
  %34 = call i32 @ASN1_item_ex_i2d(ptr noundef nonnull %6, ptr noundef null, ptr noundef nonnull @X509_NAME_INTERNAL_it.local_it, i32 noundef -1, i32 noundef -1) #6
  %35 = getelementptr inbounds nuw i8, ptr %8, i64 16
  %36 = load ptr, ptr %35, align 8, !tbaa !9
  %37 = sext i32 %34 to i64
  %38 = call i64 @BUF_MEM_grow(ptr noundef %36, i64 noundef %37) #6
  %.not23.i = icmp eq i64 %38, 0
  br i1 %.not23.i, label %39, label %x509_name_encode.exit

39:                                               ; preds = %._crit_edge.i
  call void @ERR_new() #6
  call void @ERR_set_debug(ptr noundef nonnull @.str.2, i32 noundef 271, ptr noundef nonnull @__func__.x509_name_encode) #6
  call void (i32, i32, ptr, ...) @ERR_set_error(i32 noundef 13, i32 noundef 524295, ptr noundef null) #6
  %.pre.i = load ptr, ptr %6, align 8, !tbaa !8
  br label %x509_name_encode.exit.thread

.loopexit.i:                                      ; preds = %32, %25, %29, %11
  tail call void @ERR_new() #6
  tail call void @ERR_set_debug(ptr noundef nonnull @.str.2, i32 noundef 282, ptr noundef nonnull @__func__.x509_name_encode) #6
  tail call void (i32, i32, ptr, ...) @ERR_set_error(i32 noundef 13, i32 noundef 524303, ptr noundef null) #6
  br label %x509_name_encode.exit.thread

x509_name_encode.exit.thread:                     ; preds = %39, %.loopexit.i
  %40 = phi ptr [ %12, %.loopexit.i ], [ %.pre.i, %39 ]
  call void @OPENSSL_sk_pop_free(ptr noundef %40, ptr noundef nonnull @local_sk_X509_NAME_ENTRY_free) #6
  call void @llvm.lifetime.end.p0(i64 8, ptr nonnull %7) #6
  call void @llvm.lifetime.end.p0(i64 8, ptr nonnull %6) #6
  br label %61

x509_name_encode.exit:                            ; preds = %._crit_edge.i
  %41 = load ptr, ptr %35, align 8, !tbaa !9
  %42 = getelementptr inbounds nuw i8, ptr %41, i64 8
  %43 = load ptr, ptr %42, align 8, !tbaa !15
  store ptr %43, ptr %7, align 8, !tbaa !18
  %44 = call i32 @ASN1_item_ex_i2d(ptr noundef nonnull %6, ptr noundef nonnull %7, ptr noundef nonnull @X509_NAME_INTERNAL_it.local_it, i32 noundef -1, i32 noundef -1) #6
  %45 = load ptr, ptr %6, align 8, !tbaa !8
  call void @OPENSSL_sk_pop_free(ptr noundef %45, ptr noundef nonnull @local_sk_X509_NAME_ENTRY_free) #6
  store i32 0, ptr %9, align 8, !tbaa !22
  call void @llvm.lifetime.end.p0(i64 8, ptr nonnull %7) #6
  call void @llvm.lifetime.end.p0(i64 8, ptr nonnull %6) #6
  %46 = icmp slt i32 %34, 0
  br i1 %46, label %61, label %47

47:                                               ; preds = %x509_name_encode.exit
  %48 = call fastcc i32 @x509_name_canon(ptr noundef nonnull %8)
  %.not17 = icmp eq i32 %48, 0
  br i1 %.not17, label %61, label %49

49:                                               ; preds = %47, %5
  %50 = getelementptr inbounds nuw i8, ptr %8, i64 16
  %51 = load ptr, ptr %50, align 8, !tbaa !9
  %52 = load i64, ptr %51, align 8, !tbaa !19
  %53 = trunc i64 %52 to i32
  %.not18 = icmp eq ptr %1, null
  br i1 %.not18, label %61, label %54

54:                                               ; preds = %49
  %55 = load ptr, ptr %1, align 8, !tbaa !18
  %56 = getelementptr inbounds nuw i8, ptr %51, i64 8
  %57 = load ptr, ptr %56, align 8, !tbaa !15
  %sext = shl i64 %52, 32
  %58 = ashr exact i64 %sext, 32
  call void @llvm.memcpy.p0.p0.i64(ptr align 1 %55, ptr align 1 %57, i64 %58, i1 false)
  %59 = load ptr, ptr %1, align 8, !tbaa !18
  %60 = getelementptr inbounds i8, ptr %59, i64 %58
  store ptr %60, ptr %1, align 8, !tbaa !18
  br label %61

61:                                               ; preds = %x509_name_encode.exit.thread, %49, %54, %47, %x509_name_encode.exit
  %.0 = phi i32 [ %34, %x509_name_encode.exit ], [ -1, %47 ], [ %53, %54 ], [ %53, %49 ], [ -1, %x509_name_encode.exit.thread ]
  ret i32 %.0
}